target datalayout = "e-m:e-p270:32:32-p271:32:32-p272:64:64-i64:64-i128:128-f80:128-n8:16:32:64-S128"
target triple = "x86_64-pc-linux-gnu"

%struct.SDL_Mouse = type { ptr, ptr, ptr, ptr, ptr, ptr, ptr, ptr, ptr, ptr, ptr, ptr, ptr, ptr, i8, float, float, ptr, float, float, float, float, float, float, float, float, double, double, i8, i8, i8, i8, i8, i8, i8, i8, i64, i8, float, i8, float, i8, i32, i32, i8, i8, i8, i8, i8, i8, i8, i8, i8, ptr, i32, ptr, ptr, ptr, ptr, i8, ptr }
%struct.SDL_Surface = type { i32, i32, i32, i32, i32, ptr, i32, ptr, i32, i32, ptr, i32, ptr, i32, ptr, i32, %struct.SDL_Rect, %struct.SDL_BlitMap }
%struct.SDL_Rect = type { i32, i32, i32, i32 }
%struct.SDL_BlitMap = type { i32, ptr, ptr, %struct.SDL_BlitInfo, i32, i32 }
%struct.SDL_BlitInfo = type { ptr, ptr, i32, i32, i32, i32, ptr, ptr, i32, i32, i32, i32, ptr, ptr, ptr, ptr, ptr, ptr, i32, i32, i8, i8, i8, i8 }
%struct.SDL_Cursor = type { ptr, ptr }

@SDL_mouse = internal global %struct.SDL_Mouse zeroinitializer, align 8
@.str.22 = private unnamed_addr constant [26 x i8] c"Parameter '%s' is invalid\00", align 1
@.str.23 = private unnamed_addr constant [8 x i8] c"surface\00", align 1
@.str.24 = private unnamed_addr constant [22 x i8] c"SDL.surface.hotspot.x\00", align 1
@.str.25 = private unnamed_addr constant [22 x i8] c"SDL.surface.hotspot.y\00", align 1
@.str.26 = private unnamed_addr constant [42 x i8] c"Cursor hot spot doesn't lie within cursor\00", align 1

; Function Attrs: nounwind uwtable
define hidden ptr @SDL_GetMouse() #0 {
  ret ptr @SDL_mouse
}

; Function Attrs: nounwind uwtable
define hidden ptr @SDL_CreateColorCursor_REAL(ptr noundef %0, i32 noundef %1, i32 noundef %2) #0 {
  %4 = alloca ptr, align 8
  %5 = alloca ptr, align 8
  %6 = alloca i32, align 4
  %7 = alloca i32, align 4
  %8 = alloca ptr, align 8
  %9 = alloca ptr, align 8
  %10 = alloca ptr, align 8
  %11 = alloca i32, align 4
  %12 = alloca i32, align 4
  store ptr %0, ptr %5, align 8
  store i32 %1, ptr %6, align 4
  store i32 %2, ptr %7, align 4
  call void @llvm.lifetime.start.p0(i64 8, ptr %8) #7
  %13 = call ptr @SDL_GetMouse()
  store ptr %13, ptr %8, align 8
  call void @llvm.lifetime.start.p0(i64 8, ptr %9) #7
  store ptr null, ptr %9, align 8
  call void @llvm.lifetime.start.p0(i64 8, ptr %10) #7
  %14 = load ptr, ptr %5, align 8
  %15 = icmp ne ptr %14, null
  br i1 %15, label %18, label %16

16:                                               ; preds = %3
  %17 = call zeroext i1 (ptr, ...) @SDL_SetError_REAL(ptr noundef @.str.22, ptr noundef @.str.23)
  store ptr null, ptr %4, align 8
  store i32 1, ptr %11, align 4
  br label %94

18:                                               ; preds = %3
  call void @llvm.lifetime.start.p0(i64 4, ptr %12) #7
  %19 = load ptr, ptr %5, align 8
  %20 = call i32 @SDL_GetSurfaceProperties_REAL(ptr noundef %19)
  store i32 %20, ptr %12, align 4
  %21 = load i32, ptr %12, align 4
  %22 = load i32, ptr %6, align 4
  %23 = sext i32 %22 to i64
  %24 = call i64 @SDL_GetNumberProperty_REAL(i32 noundef %21, ptr noundef @.str.24, i64 noundef %23)
  %25 = trunc i64 %24 to i32
  store i32 %25, ptr %6, align 4
  %26 = load i32, ptr %12, align 4
  %27 = load i32, ptr %7, align 4
  %28 = sext i32 %27 to i64
  %29 = call i64 @SDL_GetNumberProperty_REAL(i32 noundef %26, ptr noundef @.str.25, i64 noundef %28)
  %30 = trunc i64 %29 to i32
  store i32 %30, ptr %7, align 4
  %31 = load i32, ptr %6, align 4
  %32 = icmp slt i32 %31, 0
  br i1 %32, label %48, label %33

33:                                               ; preds = %18
  %34 = load i32, ptr %7, align 4
  %35 = icmp slt i32 %34, 0
  br i1 %35, label %48, label %36

36:                                               ; preds = %33
  %37 = load i32, ptr %6, align 4
  %38 = load ptr, ptr %5, align 8
  %39 = getelementptr inbounds nuw %struct.SDL_Surface, ptr %38, i32 0, i32 2
  %40 = load i32, ptr %39, align 8
  %41 = icmp sge i32 %37, %40
  br i1 %41, label %48, label %42

42:                                               ; preds = %36
  %43 = load i32, ptr %7, align 4
  %44 = load ptr, ptr %5, align 8
  %45 = getelementptr inbounds nuw %struct.SDL_Surface, ptr %44, i32 0, i32 3
  %46 = load i32, ptr %45, align 4
  %47 = icmp sge i32 %43, %46
  br i1 %47, label %48, label %50

48:                                               ; preds = %42, %36, %33, %18
  %49 = call zeroext i1 (ptr, ...) @SDL_SetError_REAL(ptr noundef @.str.26)
  store ptr null, ptr %4, align 8
  store i32 1, ptr %11, align 4
  br label %93

50:                                               ; preds = %42
  %51 = load ptr, ptr %5, align 8
  %52 = getelementptr inbounds nuw %struct.SDL_Surface, ptr %51, i32 0, i32 1
  %53 = load i32, ptr %52, align 4
  %54 = icmp ne i32 %53, 372645892
  br i1 %54, label %55, label %63

55:                                               ; preds = %50
  %56 = load ptr, ptr %5, align 8
  %57 = call ptr @SDL_ConvertSurface_REAL(ptr noundef %56, i32 noundef 372645892)
  store ptr %57, ptr %9, align 8
  %58 = load ptr, ptr %9, align 8
  %59 = icmp ne ptr %58, null
  br i1 %59, label %61, label %60

60:                                               ; preds = %55
  store ptr null, ptr %4, align 8
  store i32 1, ptr %11, align 4
  br label %93

61:                                               ; preds = %55
  %62 = load ptr, ptr %9, align 8
  store ptr %62, ptr %5, align 8
  br label %63

63:                                               ; preds = %61, %50
  %64 = load ptr, ptr %8, align 8
  %65 = getelementptr inbounds nuw %struct.SDL_Mouse, ptr %64, i32 0, i32 0
  %66 = load ptr, ptr %65, align 8
  %67 = icmp ne ptr %66, null
  br i1 %67, label %68, label %76

68:                                               ; preds = %63
  %69 = load ptr, ptr %8, align 8
  %70 = getelementptr inbounds nuw %struct.SDL_Mouse, ptr %69, i32 0, i32 0
  %71 = load ptr, ptr %70, align 8
  %72 = load ptr, ptr %5, align 8
  %73 = load i32, ptr %6, align 4
  %74 = load i32, ptr %7, align 4
  %75 = call ptr %71(ptr noundef %72, i32 noundef %73, i32 noundef %74)
  store ptr %75, ptr %10, align 8
  br label %78

76:                                               ; preds = %63
  %77 = call noalias ptr @SDL_calloc_REAL(i64 noundef 1, i64 noundef 16) #8
  store ptr %77, ptr %10, align 8
  br label %78

78:                                               ; preds = %76, %68
  %79 = load ptr, ptr %10, align 8
  %80 = icmp ne ptr %79, null
  br i1 %80, label %81, label %90

81:                                               ; preds = %78
  %82 = load ptr, ptr %8, align 8
  %83 = getelementptr inbounds nuw %struct.SDL_Mouse, ptr %82, i32 0, i32 56
  %84 = load ptr, ptr %83, align 8
  %85 = load ptr, ptr %10, align 8
  %86 = getelementptr inbounds nuw %struct.SDL_Cursor, ptr %85, i32 0, i32 0
  store ptr %84, ptr %86, align 8
  %87 = load ptr, ptr %10, align 8
  %88 = load ptr, ptr %8, align 8
  %89 = getelementptr inbounds nuw %struct.SDL_Mouse, ptr %88, i32 0, i32 56
  store ptr %87, ptr %89, align 8
  br label %90

90:                                               ; preds = %81, %78
  %91 = load ptr, ptr %9, align 8
  call void @SDL_DestroySurface_REAL(ptr noundef %91)
  %92 = load ptr, ptr %10, align 8
  store ptr %92, ptr %4, align 8
  store i32 1, ptr %11, align 4
  br label %93

93:                                               ; preds = %90, %60, %48
  call void @llvm.lifetime.end.p0(i64 4, ptr %12) #7
  br label %94

94:                                               ; preds = %93, %16
  call void @llvm.lifetime.end.p0(i64 8, ptr %10) #7
  call void @llvm.lifetime.end.p0(i64 8, ptr %9) #7
  call void @llvm.lifetime.end.p0(i64 8, ptr %8) #7
  %95 = load ptr, ptr %4, align 8
  ret ptr %95
}