; Function Attrs: nounwind uwtable
define hidden ptr @SDL_CreateColorCursor_REAL(ptr noundef %0, i32 noundef %1, i32 noundef %2) local_unnamed_addr #0 {
  %.not = icmp eq ptr %0, null
  br i1 %.not, label %4, label %6

4:                                                ; preds = %3
  %5 = tail call zeroext i1 (ptr, ...) @SDL_SetError_REAL(ptr noundef nonnull @.str.22, ptr noundef nonnull @.str.23) #13
  br label %39

6:                                                ; preds = %3
  %7 = tail call i32 @SDL_GetSurfaceProperties_REAL(ptr noundef nonnull %0) #13
  %8 = sext i32 %1 to i64
  %9 = tail call i64 @SDL_GetNumberProperty_REAL(i32 noundef %7, ptr noundef nonnull @.str.24, i64 noundef %8) #13
  %10 = trunc i64 %9 to i32
  %11 = sext i32 %2 to i64
  %12 = tail call i64 @SDL_GetNumberProperty_REAL(i32 noundef %7, ptr noundef nonnull @.str.25, i64 noundef %11) #13
  %13 = trunc i64 %12 to i32
  %14 = icmp slt i32 %10, 0
  %15 = icmp slt i32 %13, 0
  %or.cond = select i1 %14, i1 true, i1 %15
  br i1 %or.cond, label %22, label %16

16:                                               ; preds = %6
  %17 = getelementptr inbounds nuw i8, ptr %0, i64 8
  %18 = load i32, ptr %17, align 8
  %.not37 = icmp sgt i32 %18, %10
  br i1 %.not37, label %19, label %22

19:                                               ; preds = %16
  %20 = getelementptr inbounds nuw i8, ptr %0, i64 12
  %21 = load i32, ptr %20, align 4
  %.not38 = icmp sgt i32 %21, %13
  br i1 %.not38, label %24, label %22

22:                                               ; preds = %19, %16, %6
  %23 = tail call zeroext i1 (ptr, ...) @SDL_SetError_REAL(ptr noundef nonnull @.str.26) #13
  br label %39

24:                                               ; preds = %19
  %25 = getelementptr inbounds nuw i8, ptr %0, i64 4
  %26 = load i32, ptr %25, align 4
  %.not39 = icmp eq i32 %26, 372645892
  br i1 %.not39, label %29, label %27

27:                                               ; preds = %24
  %28 = tail call ptr @SDL_ConvertSurface_REAL(ptr noundef nonnull %0, i32 noundef 372645892) #13
  %.not40 = icmp eq ptr %28, null
  br i1 %.not40, label %39, label %29

29:                                               ; preds = %27, %24
  %.031 = phi ptr [ %0, %24 ], [ %28, %27 ]
  %.030 = phi ptr [ null, %24 ], [ %28, %27 ]
  %30 = load ptr, ptr @SDL_mouse, align 8
  %.not41 = icmp eq ptr %30, null
  br i1 %.not41, label %33, label %31

31:                                               ; preds = %29
  %32 = tail call ptr %30(ptr noundef nonnull %.031, i32 noundef %10, i32 noundef %13) #13
  br label %35

33:                                               ; preds = %29
  %34 = tail call noalias dereferenceable_or_null(16) ptr @SDL_calloc_REAL(i64 noundef 1, i64 noundef 16) #14
  br label %35

35:                                               ; preds = %33, %31
  %.029 = phi ptr [ %32, %31 ], [ %34, %33 ]
  %.not42 = icmp eq ptr %.029, null
  br i1 %.not42, label %38, label %36

36:                                               ; preds = %35
  %37 = load ptr, ptr getelementptr inbounds nuw (i8, ptr @SDL_mouse, i64 264), align 8
  store ptr %37, ptr %.029, align 8
  store ptr %.029, ptr getelementptr inbounds nuw (i8, ptr @SDL_mouse, i64 264), align 8
  br label %38

38:                                               ; preds = %36, %35
  tail call void @SDL_DestroySurface_REAL(ptr noundef %.030) #13
  br label %39

39:                                               ; preds = %22, %38, %27, %4
  %.0 = phi ptr [ null, %4 ], [ null, %22 ], [ %.029, %38 ], [ null, %27 ]
  ret ptr %.0
}